target datalayout = "e-m:e-p270:32:32-p271:32:32-p272:64:64-i64:64-i128:128-f80:128-n8:16:32:64-S128"
target triple = "x86_64-pc-linux-gnu"

%struct.smt_params_helper = type { ptr, %class.params_ref }
%class.params_ref = type { ptr }
%struct.bv_rewriter_params = type { ptr, %class.params_ref }
%struct.theory_bv_params = type { i32, i8, i8, i8, i8, i32, i8, i8, i8, i8, i32 }

@.str.10 = private unnamed_addr constant [4 x i8] c"smt\00", align 1
@.str.11 = private unnamed_addr constant [9 x i8] c"rewriter\00", align 1
@.str.12 = private unnamed_addr constant [8 x i8] c"hi_div0\00", align 1
@.str.13 = private unnamed_addr constant [11 x i8] c"bv.reflect\00", align 1
@.str.14 = private unnamed_addr constant [17 x i8] c"bv.enable_int2bv\00", align 1
@.str.15 = private unnamed_addr constant [9 x i8] c"bv.delay\00", align 1
@.str.16 = private unnamed_addr constant [15 x i8] c"bv.size_reduce\00", align 1
@.str.17 = private unnamed_addr constant [10 x i8] c"bv.solver\00", align 1

; Function Attrs: inlinehint mustprogress nounwind uwtable
define linkonce_odr hidden void @_ZN17smt_params_helperD2Ev(ptr noundef nonnull align 8 dereferenceable(16) %0) unnamed_addr #6 comdat align 2 {
  %2 = alloca ptr, align 8
  store ptr %0, ptr %2, align 8, !tbaa !20
  %3 = load ptr, ptr %2, align 8
  %4 = getelementptr inbounds nuw %struct.smt_params_helper, ptr %3, i32 0, i32 1
  call void @_ZN10params_refD1Ev(ptr noundef nonnull align 8 dereferenceable(8) %4) #3
  ret void
}

; Function Attrs: inlinehint mustprogress nounwind uwtable
define linkonce_odr hidden void @_ZN18bv_rewriter_paramsD2Ev(ptr noundef nonnull align 8 dereferenceable(16) %0) unnamed_addr #6 comdat align 2 {
  %2 = alloca ptr, align 8
  store ptr %0, ptr %2, align 8, !tbaa !22
  %3 = load ptr, ptr %2, align 8
  %4 = getelementptr inbounds nuw %struct.bv_rewriter_params, ptr %3, i32 0, i32 1
  call void @_ZN10params_refD1Ev(ptr noundef nonnull align 8 dereferenceable(8) %4) #3
  ret void
}

; Function Attrs: mustprogress uwtable
define linkonce_odr hidden noundef i32 @_ZNK17smt_params_helper9bv_solverEv(ptr noundef nonnull align 8 dereferenceable(16) %0) #4 comdat align 2 {
  %2 = alloca ptr, align 8
  store ptr %0, ptr %2, align 8, !tbaa !20
  %3 = load ptr, ptr %2, align 8
  %4 = getelementptr inbounds nuw %struct.smt_params_helper, ptr %3, i32 0, i32 0
  %5 = load ptr, ptr %4, align 8, !tbaa !28
  %6 = getelementptr inbounds nuw %struct.smt_params_helper, ptr %3, i32 0, i32 1
  %7 = call noundef i32 @_ZNK10params_ref8get_uintEPKcRKS_j(ptr noundef nonnull align 8 dereferenceable(8) %5, ptr noundef @.str.17, ptr noundef nonnull align 8 dereferenceable(8) %6, i32 noundef 0)
  ret i32 %7
}

; Function Attrs: mustprogress uwtable
define linkonce_odr hidden noundef zeroext i1 @_ZNK17smt_params_helper14bv_size_reduceEv(ptr noundef nonnull align 8 dereferenceable(16) %0) #4 comdat align 2 {
  %2 = alloca ptr, align 8
  store ptr %0, ptr %2, align 8, !tbaa !20
  %3 = load ptr, ptr %2, align 8
  %4 = getelementptr inbounds nuw %struct.smt_params_helper, ptr %3, i32 0, i32 0
  %5 = load ptr, ptr %4, align 8, !tbaa !28
  %6 = getelementptr inbounds nuw %struct.smt_params_helper, ptr %3, i32 0, i32 1
  %7 = call noundef zeroext i1 @_ZNK10params_ref8get_boolEPKcRKS_b(ptr noundef nonnull align 8 dereferenceable(8) %5, ptr noundef @.str.16, ptr noundef nonnull align 8 dereferenceable(8) %6, i1 noundef zeroext false)
  ret i1 %7
}

; Function Attrs: mustprogress uwtable
define linkonce_odr hidden noundef zeroext i1 @_ZNK17smt_params_helper8bv_delayEv(ptr noundef nonnull align 8 dereferenceable(16) %0) #4 comdat align 2 {
  %2 = alloca ptr, align 8
  store ptr %0, ptr %2, align 8, !tbaa !20
  %3 = load ptr, ptr %2, align 8
  %4 = getelementptr inbounds nuw %struct.smt_params_helper, ptr %3, i32 0, i32 0
  %5 = load ptr, ptr %4, align 8, !tbaa !28
  %6 = getelementptr inbounds nuw %struct.smt_params_helper, ptr %3, i32 0, i32 1
  %7 = call noundef zeroext i1 @_ZNK10params_ref8get_boolEPKcRKS_b(ptr noundef nonnull align 8 dereferenceable(8) %5, ptr noundef @.str.15, ptr noundef nonnull align 8 dereferenceable(8) %6, i1 noundef zeroext false)
  ret i1 %7
}

; Function Attrs: mustprogress uwtable
define linkonce_odr hidden noundef zeroext i1 @_ZNK17smt_params_helper16bv_enable_int2bvEv(ptr noundef nonnull align 8 dereferenceable(16) %0) #4 comdat align 2 {
  %2 = alloca ptr, align 8
  store ptr %0, ptr %2, align 8, !tbaa !20
  %3 = load ptr, ptr %2, align 8
  %4 = getelementptr inbounds nuw %struct.smt_params_helper, ptr %3, i32 0, i32 0
  %5 = load ptr, ptr %4, align 8, !tbaa !28
  %6 = getelementptr inbounds nuw %struct.smt_params_helper, ptr %3, i32 0, i32 1
  %7 = call noundef zeroext i1 @_ZNK10params_ref8get_boolEPKcRKS_b(ptr noundef nonnull align 8 dereferenceable(8) %5, ptr noundef @.str.14, ptr noundef nonnull align 8 dereferenceable(8) %6, i1 noundef zeroext true)
  ret i1 %7
}

; Function Attrs: mustprogress uwtable
define linkonce_odr hidden noundef zeroext i1 @_ZNK17smt_params_helper10bv_reflectEv(ptr noundef nonnull align 8 dereferenceable(16) %0) #4 comdat align 2 {
  %2 = alloca ptr, align 8
  store ptr %0, ptr %2, align 8, !tbaa !20
  %3 = load ptr, ptr %2, align 8
  %4 = getelementptr inbounds nuw %struct.smt_params_helper, ptr %3, i32 0, i32 0
  %5 = load ptr, ptr %4, align 8, !tbaa !28
  %6 = getelementptr inbounds nuw %struct.smt_params_helper, ptr %3, i32 0, i32 1
  %7 = call noundef zeroext i1 @_ZNK10params_ref8get_boolEPKcRKS_b(ptr noundef nonnull align 8 dereferenceable(8) %5, ptr noundef @.str.13, ptr noundef nonnull align 8 dereferenceable(8) %6, i1 noundef zeroext true)
  ret i1 %7
}

; Function Attrs: mustprogress uwtable
define linkonce_odr hidden noundef zeroext i1 @_ZNK18bv_rewriter_params7hi_div0Ev(ptr noundef nonnull align 8 dereferenceable(16) %0) #4 comdat align 2 {
  %2 = alloca ptr, align 8
  store ptr %0, ptr %2, align 8, !tbaa !22
  %3 = load ptr, ptr %2, align 8
  %4 = getelementptr inbounds nuw %struct.bv_rewriter_params, ptr %3, i32 0, i32 0
  %5 = load ptr, ptr %4, align 8, !tbaa !24
  %6 = getelementptr inbounds nuw %struct.bv_rewriter_params, ptr %3, i32 0, i32 1
  %7 = call noundef zeroext i1 @_ZNK10params_ref8get_boolEPKcRKS_b(ptr noundef nonnull align 8 dereferenceable(8) %5, ptr noundef @.str.12, ptr noundef nonnull align 8 dereferenceable(8) %6, i1 noundef zeroext true)
  ret i1 %7
}

; Function Attrs: mustprogress uwtable
define linkonce_odr hidden void @_ZN18bv_rewriter_paramsC2ERK10params_ref(ptr noundef nonnull align 8 dereferenceable(16) %0, ptr noundef nonnull align 8 dereferenceable(8) %1) unnamed_addr #4 comdat align 2 {
  %3 = alloca ptr, align 8
  %4 = alloca ptr, align 8
  store ptr %0, ptr %3, align 8, !tbaa !22
  store ptr %1, ptr %4, align 8, !tbaa !8
  %5 = load ptr, ptr %3, align 8
  %6 = getelementptr inbounds nuw %struct.bv_rewriter_params, ptr %5, i32 0, i32 0
  %7 = load ptr, ptr %4, align 8, !tbaa !8
  store ptr %7, ptr %6, align 8, !tbaa !8
  %8 = getelementptr inbounds nuw %struct.bv_rewriter_params, ptr %5, i32 0, i32 1
  call void @_ZN7gparams10get_moduleEPKc(ptr dead_on_unwind writable sret(%class.params_ref) align 8 %8, ptr noundef @.str.11)
  ret void
}

; Function Attrs: mustprogress uwtable
define linkonce_odr hidden void @_ZN17smt_params_helperC2ERK10params_ref(ptr noundef nonnull align 8 dereferenceable(16) %0, ptr noundef nonnull align 8 dereferenceable(8) %1) unnamed_addr #4 comdat align 2 {
  %3 = alloca ptr, align 8
  %4 = alloca ptr, align 8
  store ptr %0, ptr %3, align 8, !tbaa !20
  store ptr %1, ptr %4, align 8, !tbaa !8
  %5 = load ptr, ptr %3, align 8
  %6 = getelementptr inbounds nuw %struct.smt_params_helper, ptr %5, i32 0, i32 0
  %7 = load ptr, ptr %4, align 8, !tbaa !8
  store ptr %7, ptr %6, align 8, !tbaa !8
  %8 = getelementptr inbounds nuw %struct.smt_params_helper, ptr %5, i32 0, i32 1
  call void @_ZN7gparams10get_moduleEPKc(ptr dead_on_unwind writable sret(%class.params_ref) align 8 %8, ptr noundef @.str.10)
  ret void
}

; Function Attrs: mustprogress uwtable
define hidden void @_ZN16theory_bv_params11updt_paramsERK10params_ref(ptr noundef nonnull align 4 dereferenceable(20) %0, ptr noundef nonnull align 8 dereferenceable(8) %1) #4 align 2 personality ptr @__gxx_personality_v0 {
  %3 = alloca ptr, align 8
  %4 = alloca ptr, align 8
  %5 = alloca %struct.smt_params_helper, align 8
  %6 = alloca %struct.bv_rewriter_params, align 8
  %7 = alloca ptr, align 8
  %8 = alloca i32, align 4
  store ptr %0, ptr %3, align 8, !tbaa !3
  store ptr %1, ptr %4, align 8, !tbaa !8
  %9 = load ptr, ptr %3, align 8
  call void @llvm.lifetime.start.p0(i64 16, ptr %5) #3
  %10 = load ptr, ptr %4, align 8, !tbaa !8
  call void @_ZN17smt_params_helperC2ERK10params_ref(ptr noundef nonnull align 8 dereferenceable(16) %5, ptr noundef nonnull align 8 dereferenceable(8) %10)
  call void @llvm.lifetime.start.p0(i64 16, ptr %6) #3
  %11 = load ptr, ptr %4, align 8, !tbaa !8
  invoke void @_ZN18bv_rewriter_paramsC2ERK10params_ref(ptr noundef nonnull align 8 dereferenceable(16) %6, ptr noundef nonnull align 8 dereferenceable(8) %11)
          to label %12 unwind label %36

12:                                               ; preds = %2
  %13 = invoke noundef zeroext i1 @_ZNK18bv_rewriter_params7hi_div0Ev(ptr noundef nonnull align 8 dereferenceable(16) %6)
          to label %14 unwind label %40

14:                                               ; preds = %12
  %15 = getelementptr inbounds nuw %struct.theory_bv_params, ptr %9, i32 0, i32 1
  %16 = zext i1 %13 to i8
  store i8 %16, ptr %15, align 4, !tbaa !10
  %17 = invoke noundef zeroext i1 @_ZNK17smt_params_helper10bv_reflectEv(ptr noundef nonnull align 8 dereferenceable(16) %5)
          to label %18 unwind label %40

18:                                               ; preds = %14
  %19 = getelementptr inbounds nuw %struct.theory_bv_params, ptr %9, i32 0, i32 2
  %20 = zext i1 %17 to i8
  store i8 %20, ptr %19, align 1, !tbaa !15
  %21 = invoke noundef zeroext i1 @_ZNK17smt_params_helper16bv_enable_int2bvEv(ptr noundef nonnull align 8 dereferenceable(16) %5)
          to label %22 unwind label %40

22:                                               ; preds = %18
  %23 = getelementptr inbounds nuw %struct.theory_bv_params, ptr %9, i32 0, i32 6
  %24 = zext i1 %21 to i8
  store i8 %24, ptr %23, align 4, !tbaa !16
  %25 = invoke noundef zeroext i1 @_ZNK17smt_params_helper8bv_delayEv(ptr noundef nonnull align 8 dereferenceable(16) %5)
          to label %26 unwind label %40

26:                                               ; preds = %22
  %27 = getelementptr inbounds nuw %struct.theory_bv_params, ptr %9, i32 0, i32 8
  %28 = zext i1 %25 to i8
  store i8 %28, ptr %27, align 2, !tbaa !17
  %29 = invoke noundef zeroext i1 @_ZNK17smt_params_helper14bv_size_reduceEv(ptr noundef nonnull align 8 dereferenceable(16) %5)
          to label %30 unwind label %40

30:                                               ; preds = %26
  %31 = getelementptr inbounds nuw %struct.theory_bv_params, ptr %9, i32 0, i32 9
  %32 = zext i1 %29 to i8
  store i8 %32, ptr %31, align 1, !tbaa !18
  %33 = invoke noundef i32 @_ZNK17smt_params_helper9bv_solverEv(ptr noundef nonnull align 8 dereferenceable(16) %5)
          to label %34 unwind label %40

34:                                               ; preds = %30
  %35 = getelementptr inbounds nuw %struct.theory_bv_params, ptr %9, i32 0, i32 10
  store i32 %33, ptr %35, align 4, !tbaa !19
  call void @_ZN18bv_rewriter_paramsD2Ev(ptr noundef nonnull align 8 dereferenceable(16) %6) #3
  call void @llvm.lifetime.end.p0(i64 16, ptr %6) #3
  call void @_ZN17smt_params_helperD2Ev(ptr noundef nonnull align 8 dereferenceable(16) %5) #3
  call void @llvm.lifetime.end.p0(i64 16, ptr %5) #3
  ret void

36:                                               ; preds = %2
  %37 = landingpad { ptr, i32 }
          cleanup
  %38 = extractvalue { ptr, i32 } %37, 0
  store ptr %38, ptr %7, align 8
  %39 = extractvalue { ptr, i32 } %37, 1
  store i32 %39, ptr %8, align 4
  br label %44

40:                                               ; preds = %30, %26, %22, %18, %14, %12
  %41 = landingpad { ptr, i32 }
          cleanup
  %42 = extractvalue { ptr, i32 } %41, 0
  store ptr %42, ptr %7, align 8
  %43 = extractvalue { ptr, i32 } %41, 1
  store i32 %43, ptr %8, align 4
  call void @_ZN18bv_rewriter_paramsD2Ev(ptr noundef nonnull align 8 dereferenceable(16) %6) #3
  br label %44

44:                                               ; preds = %40, %36
  call void @llvm.lifetime.end.p0(i64 16, ptr %6) #3
  call void @_ZN17smt_params_helperD2Ev(ptr noundef nonnull align 8 dereferenceable(16) %5) #3
  call void @llvm.lifetime.end.p0(i64 16, ptr %5) #3
  br label %45

45:                                               ; preds = %44
  %46 = load ptr, ptr %7, align 8
  %47 = load i32, ptr %8, align 4
  %48 = insertvalue { ptr, i32 } poison, ptr %46, 0
  %49 = insertvalue { ptr, i32 } %48, i32 %47, 1
  resume { ptr, i32 } %49
}