; Function Attrs: mustprogress uwtable
define hidden void @_ZN16theory_bv_params11updt_paramsERK10params_ref(ptr noundef nonnull writeonly align 4 captures(none) dereferenceable(20) %0, ptr noundef nonnull align 8 dereferenceable(8) %1) local_unnamed_addr #3 align 2 personality ptr @__gxx_personality_v0 {
  %3 = alloca %struct.smt_params_helper, align 8
  %4 = alloca %struct.bv_rewriter_params, align 8
  call void @llvm.lifetime.start.p0(i64 16, ptr nonnull %3) #6
  store ptr %1, ptr %3, align 8, !tbaa !3
  %5 = getelementptr inbounds nuw i8, ptr %3, i64 8
  call void @_ZN7gparams10get_moduleEPKc(ptr dead_on_unwind nonnull writable sret(%class.params_ref) align 8 %5, ptr noundef nonnull @.str.10)
  call void @llvm.lifetime.start.p0(i64 16, ptr nonnull %4) #6
  store ptr %1, ptr %4, align 8, !tbaa !3
  %6 = getelementptr inbounds nuw i8, ptr %4, i64 8
  invoke void @_ZN7gparams10get_moduleEPKc(ptr dead_on_unwind nonnull writable sret(%class.params_ref) align 8 %6, ptr noundef nonnull @.str.11)
          to label %_ZN18bv_rewriter_paramsC2ERK10params_ref.exit unwind label %30

_ZN18bv_rewriter_paramsC2ERK10params_ref.exit:    ; preds = %2
  %7 = load ptr, ptr %4, align 8, !tbaa !8
  %8 = invoke noundef zeroext i1 @_ZNK10params_ref8get_boolEPKcRKS_b(ptr noundef nonnull align 8 dereferenceable(8) %7, ptr noundef nonnull @.str.12, ptr noundef nonnull align 8 dereferenceable(8) %6, i1 noundef zeroext true)
          to label %_ZNK18bv_rewriter_params7hi_div0Ev.exit unwind label %32

_ZNK18bv_rewriter_params7hi_div0Ev.exit:          ; preds = %_ZN18bv_rewriter_paramsC2ERK10params_ref.exit
  %9 = getelementptr inbounds nuw i8, ptr %0, i64 4
  %10 = zext i1 %8 to i8
  store i8 %10, ptr %9, align 4, !tbaa !12
  %11 = load ptr, ptr %3, align 8, !tbaa !17
  %12 = invoke noundef zeroext i1 @_ZNK10params_ref8get_boolEPKcRKS_b(ptr noundef nonnull align 8 dereferenceable(8) %11, ptr noundef nonnull @.str.13, ptr noundef nonnull align 8 dereferenceable(8) %5, i1 noundef zeroext true)
          to label %_ZNK17smt_params_helper10bv_reflectEv.exit unwind label %32

_ZNK17smt_params_helper10bv_reflectEv.exit:       ; preds = %_ZNK18bv_rewriter_params7hi_div0Ev.exit
  %13 = getelementptr inbounds nuw i8, ptr %0, i64 5
  %14 = zext i1 %12 to i8
  store i8 %14, ptr %13, align 1, !tbaa !19
  %15 = load ptr, ptr %3, align 8, !tbaa !17
  %16 = invoke noundef zeroext i1 @_ZNK10params_ref8get_boolEPKcRKS_b(ptr noundef nonnull align 8 dereferenceable(8) %15, ptr noundef nonnull @.str.14, ptr noundef nonnull align 8 dereferenceable(8) %5, i1 noundef zeroext true)
          to label %_ZNK17smt_params_helper16bv_enable_int2bvEv.exit unwind label %32

_ZNK17smt_params_helper16bv_enable_int2bvEv.exit: ; preds = %_ZNK17smt_params_helper10bv_reflectEv.exit
  %17 = getelementptr inbounds nuw i8, ptr %0, i64 12
  %18 = zext i1 %16 to i8
  store i8 %18, ptr %17, align 4, !tbaa !20
  %19 = load ptr, ptr %3, align 8, !tbaa !17
  %20 = invoke noundef zeroext i1 @_ZNK10params_ref8get_boolEPKcRKS_b(ptr noundef nonnull align 8 dereferenceable(8) %19, ptr noundef nonnull @.str.15, ptr noundef nonnull align 8 dereferenceable(8) %5, i1 noundef zeroext false)
          to label %_ZNK17smt_params_helper8bv_delayEv.exit unwind label %32

_ZNK17smt_params_helper8bv_delayEv.exit:          ; preds = %_ZNK17smt_params_helper16bv_enable_int2bvEv.exit
  %21 = getelementptr inbounds nuw i8, ptr %0, i64 14
  %22 = zext i1 %20 to i8
  store i8 %22, ptr %21, align 2, !tbaa !21
  %23 = load ptr, ptr %3, align 8, !tbaa !17
  %24 = invoke noundef zeroext i1 @_ZNK10params_ref8get_boolEPKcRKS_b(ptr noundef nonnull align 8 dereferenceable(8) %23, ptr noundef nonnull @.str.16, ptr noundef nonnull align 8 dereferenceable(8) %5, i1 noundef zeroext false)
          to label %_ZNK17smt_params_helper14bv_size_reduceEv.exit unwind label %32

_ZNK17smt_params_helper14bv_size_reduceEv.exit:   ; preds = %_ZNK17smt_params_helper8bv_delayEv.exit
  %25 = getelementptr inbounds nuw i8, ptr %0, i64 15
  %26 = zext i1 %24 to i8
  store i8 %26, ptr %25, align 1, !tbaa !22
  %27 = load ptr, ptr %3, align 8, !tbaa !17
  %28 = invoke noundef i32 @_ZNK10params_ref8get_uintEPKcRKS_j(ptr noundef nonnull align 8 dereferenceable(8) %27, ptr noundef nonnull @.str.17, ptr noundef nonnull align 8 dereferenceable(8) %5, i32 noundef 0)
          to label %_ZNK17smt_params_helper9bv_solverEv.exit unwind label %32

_ZNK17smt_params_helper9bv_solverEv.exit:         ; preds = %_ZNK17smt_params_helper14bv_size_reduceEv.exit
  %29 = getelementptr inbounds nuw i8, ptr %0, i64 16
  store i32 %28, ptr %29, align 4, !tbaa !23
  call void @_ZN10params_refD1Ev(ptr noundef nonnull align 8 dereferenceable(8) %6) #6
  call void @llvm.lifetime.end.p0(i64 16, ptr nonnull %4) #6
  call void @_ZN10params_refD1Ev(ptr noundef nonnull align 8 dereferenceable(8) %5) #6
  call void @llvm.lifetime.end.p0(i64 16, ptr nonnull %3) #6
  ret void

30:                                               ; preds = %2
  %31 = landingpad { ptr, i32 }
          cleanup
  br label %34

32:                                               ; preds = %_ZNK17smt_params_helper14bv_size_reduceEv.exit, %_ZNK17smt_params_helper8bv_delayEv.exit, %_ZNK17smt_params_helper16bv_enable_int2bvEv.exit, %_ZNK17smt_params_helper10bv_reflectEv.exit, %_ZNK18bv_rewriter_params7hi_div0Ev.exit, %_ZN18bv_rewriter_paramsC2ERK10params_ref.exit
  %33 = landingpad { ptr, i32 }
          cleanup
  call void @_ZN10params_refD1Ev(ptr noundef nonnull align 8 dereferenceable(8) %6) #6
  br label %34

34:                                               ; preds = %32, %30
  %.pn = phi { ptr, i32 } [ %33, %32 ], [ %31, %30 ]
  call void @llvm.lifetime.end.p0(i64 16, ptr nonnull %4) #6
  call void @_ZN10params_refD1Ev(ptr noundef nonnull align 8 dereferenceable(8) %5) #6
  call void @llvm.lifetime.end.p0(i64 16, ptr nonnull %3) #6
  resume { ptr, i32 } %.pn
}